target datalayout = "e-m:e-p270:32:32-p271:32:32-p272:64:64-i64:64-i128:128-f80:128-n8:16:32:64-S128"
target triple = "x86_64-pc-linux-gnu"

@full_hash = internal global i32 0, align 4
@hs_full_hash = internal global [32 x i8] c"\F8\C1\9E\8Cw\C08y\BB\C8\EBmV\E0\0D\D5\D8n\F5Y'\EE\FC\08\E1\B0\02\B6\EC\E0]\BF", align 16
@hs_start_hash = internal global [32 x i8] c"\C6\C9\18\AD/A\99\D5Y\8E\AF\01\16\CBz\\,\14\CBTx\12\18\88\8D\B7\03\0D\D5\0D^m", align 16

; Function Attrs: nounwind uwtable
define dso_local i32 @ssl_handshake_hash(ptr noundef %0, ptr noundef %1, i64 noundef %2, ptr noundef %3) #0 {
  %5 = alloca i32, align 4
  %6 = alloca ptr, align 8
  %7 = alloca ptr, align 8
  %8 = alloca i64, align 8
  %9 = alloca ptr, align 8
  store ptr %0, ptr %6, align 8, !tbaa !4
  store ptr %1, ptr %7, align 8, !tbaa !11
  store i64 %2, ptr %8, align 8, !tbaa !13
  store ptr %3, ptr %9, align 8, !tbaa !15
  %10 = load i64, ptr %8, align 8, !tbaa !13
  %11 = icmp ugt i64 32, %10
  br i1 %11, label %12, label %13

12:                                               ; preds = %4
  store i32 0, ptr %5, align 4
  br label %23

13:                                               ; preds = %4
  %14 = load i32, ptr @full_hash, align 4, !tbaa !9
  %15 = icmp ne i32 %14, 0
  br i1 %15, label %16, label %19

16:                                               ; preds = %13
  %17 = load ptr, ptr %7, align 8, !tbaa !11
  call void @llvm.memcpy.p0.p0.i64(ptr align 1 %17, ptr align 16 @hs_full_hash, i64 32, i1 false)
  %18 = load ptr, ptr %9, align 8, !tbaa !15
  store i64 32, ptr %18, align 8, !tbaa !13
  br label %22

19:                                               ; preds = %13
  %20 = load ptr, ptr %7, align 8, !tbaa !11
  call void @llvm.memcpy.p0.p0.i64(ptr align 1 %20, ptr align 16 @hs_start_hash, i64 32, i1 false)
  %21 = load ptr, ptr %9, align 8, !tbaa !15
  store i64 32, ptr %21, align 8, !tbaa !13
  br label %22

22:                                               ; preds = %19, %16
  store i32 1, ptr %5, align 4
  br label %23

23:                                               ; preds = %22, %12
  %24 = load i32, ptr %5, align 4
  ret i32 %24
}