; Function Attrs: mustprogress nofree norecurse nosync nounwind willreturn memory(read, argmem: readwrite, inaccessiblemem: none) uwtable
define dso_local range(i32 0, 2) i32 @ssl_handshake_hash(ptr noundef readnone captures(none) %0, ptr noundef writeonly captures(none) %1, i64 noundef %2, ptr noundef writeonly captures(none) %3) local_unnamed_addr #1 {
  %5 = icmp ult i64 %2, 32
  br i1 %5, label %10, label %6

6:                                                ; preds = %4
  %.b = load i1, ptr @full_hash, align 4
  br i1 %.b, label %7, label %8

7:                                                ; preds = %6
  tail call void @llvm.memcpy.p0.p0.i64(ptr noundef nonnull align 1 dereferenceable(32) %1, ptr noundef nonnull align 16 dereferenceable(32) @hs_full_hash, i64 32, i1 false)
  br label %9

8:                                                ; preds = %6
  tail call void @llvm.memcpy.p0.p0.i64(ptr noundef nonnull align 1 dereferenceable(32) %1, ptr noundef nonnull align 16 dereferenceable(32) @hs_start_hash, i64 32, i1 false)
  br label %9

9:                                                ; preds = %8, %7
  store i64 32, ptr %3, align 8, !tbaa !4
  br label %10

10:                                               ; preds = %4, %9
  %.0 = phi i32 [ 1, %9 ], [ 0, %4 ]
  ret i32 %.0
}